; Function Attrs: mustprogress nofree norecurse nosync nounwind willreturn memory(argmem: write) uwtable
define void @_ZN7rocksdb17BijectiveHash2x64EmmmPmS0_(i64 noundef %0, i64 noundef %1, i64 noundef %2, ptr noundef writeonly captures(none) initializes((0, 8)) %3, ptr noundef writeonly captures(none) initializes((0, 8)) %4) local_unnamed_addr #9 {
  %6 = sub i64 6455697860950631241, %2
  %7 = add i64 %2, -4466874330221494952
  %8 = xor i64 %1, %6
  %9 = xor i64 %8, %0
  %10 = and i64 %9, 4294967295
  %11 = mul nuw i64 %10, 2246822535
  %12 = and i64 %11, 4294967295
  %13 = lshr i64 %11, 32
  %14 = lshr i64 %9, 32
  %15 = mul nuw i64 %14, 2246822535
  %16 = add nuw i64 %13, %15
  %17 = mul nuw i64 %10, 2654435761
  %18 = and i64 %17, 4294967295
  %19 = add nuw i64 %16, %18
  %20 = shl i64 %19, 32
  %21 = lshr i64 %19, 32
  %22 = lshr i64 %17, 32
  %23 = mul nuw i64 %14, 2654435761
  %24 = or disjoint i64 %12, 270215977642229760
  %25 = add i64 %24, %20
  %26 = xor i64 %7, %0
  %27 = and i64 %26, 4294967295
  %28 = mul nuw i64 %27, 2246822518
  %29 = add i64 %28, %26
  %30 = add i64 %29, %23
  %31 = add i64 %30, %22
  %32 = add i64 %31, %21
  %33 = tail call noundef i64 @llvm.bswap.i64(i64 %32)
  %34 = xor i64 %33, %25
  %35 = and i64 %34, 4294967295
  %36 = mul nuw nsw i64 %35, 668265295
  %37 = and i64 %36, 4294967295
  %38 = lshr i64 %36, 32
  %39 = lshr i64 %34, 32
  %40 = mul nuw nsw i64 %39, 668265295
  %41 = add nuw nsw i64 %38, %40
  %42 = mul nuw i64 %35, 3266489917
  %43 = and i64 %42, 4294967295
  %44 = add nuw nsw i64 %41, %43
  %45 = shl i64 %44, 32
  %46 = or disjoint i64 %45, %37
  %47 = lshr i64 %44, 32
  %48 = lshr i64 %42, 32
  %49 = mul nuw i64 %39, 3266489917
  %50 = mul i64 %32, -4417276706812531889
  %51 = add i64 %49, %50
  %52 = add i64 %51, %48
  %53 = add i64 %52, %47
  %54 = lshr i64 %45, 37
  %55 = xor i64 %54, %46
  %56 = mul i64 %55, 1609587791953885689
  %57 = lshr i64 %56, 32
  %58 = xor i64 %57, %56
  store i64 %58, ptr %4, align 8, !tbaa !27
  %59 = lshr i64 %53, 37
  %60 = xor i64 %59, %53
  %61 = mul i64 %60, 1609587791953885689
  %62 = lshr i64 %61, 32
  %63 = xor i64 %62, %61
  store i64 %63, ptr %3, align 8, !tbaa !27
  ret void
}